; Function Attrs: inlinehint mustprogress nounwind uwtable
define internal fastcc void @"_ZZN9grpc_core12_GLOBAL__N_118SecurityHandshaker36OnHandshakeDataSentToPeerFnSchedulerEN4absl12lts_202407226StatusEEN3$_0D2Ev"(ptr noundef nonnull readonly align 8 captures(none) dereferenceable(16) %0) unnamed_addr #5 align 2 personality ptr @__gxx_personality_v0 {
  %2 = getelementptr inbounds nuw i8, ptr %0, i64 8
  %3 = load i64, ptr %2, align 8, !tbaa !3
  %4 = and i64 %3, 1
  %.not.i.i = icmp eq i64 %4, 0
  br i1 %.not.i.i, label %5, label %_ZN4absl12lts_202407226StatusD2Ev.exit

5:                                                ; preds = %1
  %6 = inttoptr i64 %3 to ptr
  invoke void @_ZNK4absl12lts_2024072215status_internal9StatusRep5UnrefEv(ptr noundef nonnull align 8 dereferenceable(48) %6)
          to label %_ZN4absl12lts_202407226StatusD2Ev.exit unwind label %7

7:                                                ; preds = %5
  %8 = landingpad { ptr, i32 }
          catch ptr null
  %9 = extractvalue { ptr, i32 } %8, 0
  tail call void @__clang_call_terminate(ptr %9) #33
  unreachable

_ZN4absl12lts_202407226StatusD2Ev.exit:           ; preds = %1, %5
  %.val = load ptr, ptr %0, align 8, !tbaa !177
  %.not.i = icmp eq ptr %.val, null
  br i1 %.not.i, label %_ZN9grpc_core13RefCountedPtrINS_12_GLOBAL__N_118SecurityHandshakerEED2Ev.exit, label %10

10:                                               ; preds = %_ZN4absl12lts_202407226StatusD2Ev.exit
  %11 = getelementptr inbounds nuw i8, ptr %.val, i64 8
  %12 = atomicrmw sub ptr %11, i64 1 acq_rel, align 8
  %13 = icmp eq i64 %12, 1
  br i1 %13, label %14, label %_ZN9grpc_core13RefCountedPtrINS_12_GLOBAL__N_118SecurityHandshakerEED2Ev.exit, !prof !81

14:                                               ; preds = %10
  %15 = load ptr, ptr %.val, align 8, !tbaa !34
  %16 = getelementptr inbounds nuw i8, ptr %15, i64 8
  %17 = load ptr, ptr %16, align 8
  tail call void %17(ptr noundef nonnull align 8 dereferenceable(16) %.val) #30
  br label %_ZN9grpc_core13RefCountedPtrINS_12_GLOBAL__N_118SecurityHandshakerEED2Ev.exit

_ZN9grpc_core13RefCountedPtrINS_12_GLOBAL__N_118SecurityHandshakerEED2Ev.exit: ; preds = %_ZN4absl12lts_202407226StatusD2Ev.exit, %10, %14
  ret void
}